target datalayout = "e-m:e-p270:32:32-p271:32:32-p272:64:64-i64:64-i128:128-f80:128-n8:16:32:64-S128"
target triple = "x86_64-pc-linux-gnu"

%struct._lv_global_t = type { i8, i8, %struct.lv_ll_t, ptr, ptr, %struct.lv_ll_t, i8, i32, i32, ptr, %struct.lv_ll_t, ptr, %struct.lv_ll_t, ptr, ptr, i32, ptr, i8, i32, i32, ptr, i32, %struct.lv_timer_state_t, %struct.lv_anim_state_t, %struct.lv_tick_state_t, %struct._lv_draw_buf_handlers_t, %struct._lv_draw_buf_handlers_t, %struct._lv_draw_buf_handlers_t, %struct.lv_ll_t, ptr, ptr, %struct.lv_draw_global_info_t, [4 x %struct.lv_draw_sw_mask_radius_circle_dsc_t], ptr, ptr, ptr, %struct.lv_tlsf_state_t, %struct.lv_ll_t, ptr, ptr, %struct.lv_style_t, i64, ptr, i32, ptr }
%struct.lv_timer_state_t = type { %struct.lv_ll_t, i8, i8, i8, i8, i32, i8, i32, i32, i32, i32, ptr, ptr }
%struct.lv_anim_state_t = type { i8, i8, ptr, %struct.lv_ll_t }
%struct.lv_tick_state_t = type { i32, i8, ptr, ptr }
%struct._lv_draw_buf_handlers_t = type { ptr, ptr, ptr, ptr, ptr, ptr }
%struct.lv_draw_global_info_t = type { ptr, i32, i32, i32, i32, i8 }
%struct.lv_draw_sw_mask_radius_circle_dsc_t = type { ptr, ptr, ptr, ptr, i32, i32, i32 }
%struct.lv_tlsf_state_t = type { ptr, i64, i64, %struct.lv_ll_t }
%struct.lv_ll_t = type { i32, ptr, ptr }
%struct.lv_style_t = type { ptr, i32, i8 }
%struct._lv_freetype_context_t = type { ptr, %struct.lv_ll_t, ptr, i32, ptr }
%struct._lv_freetype_cache_node_t = type { ptr, i32, i32, i32, ptr, i32, ptr, ptr }
%struct.FT_Matrix_ = type { i64, i64, i64, i64 }

@lv_global = external global %struct._lv_global_t, align 8

; Function Attrs: nounwind uwtable
define void @lv_freetype_italic_transform(ptr noundef %0) #0 {
  %2 = alloca ptr, align 8
  %3 = alloca %struct.FT_Matrix_, align 8
  store ptr %0, ptr %2, align 8, !tbaa !20
  br label %4

4:                                                ; preds = %1
  %5 = load ptr, ptr %2, align 8, !tbaa !20
  %6 = icmp ne ptr %5, null
  br i1 %6, label %11, label %7

7:                                                ; preds = %4
  br label %8

8:                                                ; preds = %7
  br label %9

9:                                                ; preds = %8
  br label %10

10:                                               ; preds = %9, %10
  br label %10

11:                                               ; preds = %4
  br label %12

12:                                               ; preds = %11
  call void @llvm.lifetime.start.p0(i64 32, ptr %3) #7
  %13 = getelementptr inbounds nuw %struct.FT_Matrix_, ptr %3, i32 0, i32 0
  store i64 65536, ptr %13, align 8, !tbaa !74
  %14 = getelementptr inbounds nuw %struct.FT_Matrix_, ptr %3, i32 0, i32 1
  store i64 13930, ptr %14, align 8, !tbaa !76
  %15 = getelementptr inbounds nuw %struct.FT_Matrix_, ptr %3, i32 0, i32 2
  store i64 0, ptr %15, align 8, !tbaa !77
  %16 = getelementptr inbounds nuw %struct.FT_Matrix_, ptr %3, i32 0, i32 3
  store i64 65536, ptr %16, align 8, !tbaa !78
  %17 = load ptr, ptr %2, align 8, !tbaa !20
  call void @FT_Set_Transform(ptr noundef %17, ptr noundef %3, ptr noundef null)
  call void @llvm.lifetime.end.p0(i64 32, ptr %3) #7
  ret void
}

; Function Attrs: nounwind uwtable
define ptr @lv_freetype_get_context() #0 {
  %1 = load ptr, ptr getelementptr inbounds nuw (%struct._lv_global_t, ptr @lv_global, i32 0, i32 38), align 8, !tbaa !7
  ret ptr %1
}

; Function Attrs: nounwind uwtable
define internal zeroext i1 @cache_node_cache_create_cb(ptr noundef %0, ptr noundef %1) #0 {
  %3 = alloca i1, align 1
  %4 = alloca ptr, align 8
  %5 = alloca ptr, align 8
  %6 = alloca ptr, align 8
  %7 = alloca ptr, align 8
  %8 = alloca i32, align 4
  %9 = alloca i32, align 4
  store ptr %0, ptr %4, align 8, !tbaa !20
  store ptr %1, ptr %5, align 8, !tbaa !20
  call void @llvm.lifetime.start.p0(i64 8, ptr %6) #7
  %10 = call ptr @lv_freetype_get_context()
  store ptr %10, ptr %6, align 8, !tbaa !20
  call void @llvm.lifetime.start.p0(i64 8, ptr %7) #7
  call void @llvm.lifetime.start.p0(i64 4, ptr %8) #7
  %11 = load ptr, ptr %6, align 8, !tbaa !20
  %12 = getelementptr inbounds nuw %struct._lv_freetype_context_t, ptr %11, i32 0, i32 0
  %13 = load ptr, ptr %12, align 8, !tbaa !28
  %14 = load ptr, ptr %4, align 8, !tbaa !20
  %15 = getelementptr inbounds nuw %struct._lv_freetype_cache_node_t, ptr %14, i32 0, i32 0
  %16 = load ptr, ptr %15, align 8, !tbaa !27
  %17 = call i32 @FT_New_Face(ptr noundef %13, ptr noundef %16, i64 noundef 0, ptr noundef %7)
  store i32 %17, ptr %8, align 4, !tbaa !3
  %18 = load i32, ptr %8, align 4, !tbaa !3
  %19 = icmp ne i32 %18, 0
  br i1 %19, label %20, label %24

20:                                               ; preds = %2
  br label %21

21:                                               ; preds = %20
  br label %22

22:                                               ; preds = %21
  br label %23

23:                                               ; preds = %22
  store i1 false, ptr %3, align 1
  store i32 1, ptr %9, align 4
  br label %41

24:                                               ; preds = %2
  %25 = load ptr, ptr %4, align 8, !tbaa !20
  %26 = getelementptr inbounds nuw %struct._lv_freetype_cache_node_t, ptr %25, i32 0, i32 3
  store i32 128, ptr %26, align 8, !tbaa !29
  %27 = load ptr, ptr %4, align 8, !tbaa !20
  %28 = getelementptr inbounds nuw %struct._lv_freetype_cache_node_t, ptr %27, i32 0, i32 1
  %29 = load i32, ptr %28, align 8, !tbaa !26
  %30 = and i32 %29, 1
  %31 = icmp ne i32 %30, 0
  br i1 %31, label %32, label %34

32:                                               ; preds = %24
  %33 = load ptr, ptr %7, align 8, !tbaa !20
  call void @lv_freetype_italic_transform(ptr noundef %33)
  br label %34

34:                                               ; preds = %32, %24
  %35 = load ptr, ptr %7, align 8, !tbaa !20
  %36 = load ptr, ptr %4, align 8, !tbaa !20
  %37 = getelementptr inbounds nuw %struct._lv_freetype_cache_node_t, ptr %36, i32 0, i32 4
  store ptr %35, ptr %37, align 8, !tbaa !30
  %38 = load ptr, ptr %4, align 8, !tbaa !20
  %39 = getelementptr inbounds nuw %struct._lv_freetype_cache_node_t, ptr %38, i32 0, i32 5
  %40 = call i32 @lv_mutex_init(ptr noundef %39)
  store i1 true, ptr %3, align 1
  store i32 1, ptr %9, align 4
  br label %41

41:                                               ; preds = %34, %23
  call void @llvm.lifetime.end.p0(i64 4, ptr %8) #7
  call void @llvm.lifetime.end.p0(i64 8, ptr %7) #7
  call void @llvm.lifetime.end.p0(i64 8, ptr %6) #7
  %42 = load i1, ptr %3, align 1
  ret i1 %42
}