; Function Attrs: nounwind uwtable
define internal noundef zeroext i1 @cache_node_cache_create_cb(ptr noundef %0, ptr nocapture readnone %1) #0 {
  %3 = alloca %struct.FT_Matrix_, align 8
  %4 = alloca ptr, align 8
  %5 = load ptr, ptr getelementptr inbounds nuw (i8, ptr @lv_global, i64 856), align 8, !tbaa !3
  call void @llvm.lifetime.start.p0(i64 8, ptr nonnull %4) #8
  %6 = load ptr, ptr %5, align 8, !tbaa !26
  %7 = load ptr, ptr %0, align 8, !tbaa !25
  %8 = call i32 @FT_New_Face(ptr noundef %6, ptr noundef %7, i64 noundef 0, ptr noundef nonnull %4) #8
  %.not = icmp eq i32 %8, 0
  br i1 %.not, label %9, label %24

9:                                                ; preds = %2
  %10 = getelementptr inbounds nuw i8, ptr %0, i64 16
  store i32 128, ptr %10, align 8, !tbaa !27
  %11 = getelementptr inbounds nuw i8, ptr %0, i64 8
  %12 = load i32, ptr %11, align 8, !tbaa !24
  %13 = and i32 %12, 1
  %.not7 = icmp eq i32 %13, 0
  br i1 %.not7, label %19, label %14

14:                                               ; preds = %9
  %15 = load ptr, ptr %4, align 8, !tbaa !28
  %.not.i = icmp eq ptr %15, null
  br i1 %.not.i, label %.preheader.i, label %lv_freetype_italic_transform.exit

.preheader.i:                                     ; preds = %14, %.preheader.i
  br label %.preheader.i

lv_freetype_italic_transform.exit:                ; preds = %14
  call void @llvm.lifetime.start.p0(i64 32, ptr nonnull %3) #8
  store i64 65536, ptr %3, align 8, !tbaa !29
  %16 = getelementptr inbounds nuw i8, ptr %3, i64 8
  store i64 13930, ptr %16, align 8, !tbaa !31
  %17 = getelementptr inbounds nuw i8, ptr %3, i64 16
  store i64 0, ptr %17, align 8, !tbaa !32
  %18 = getelementptr inbounds nuw i8, ptr %3, i64 24
  store i64 65536, ptr %18, align 8, !tbaa !33
  call void @FT_Set_Transform(ptr noundef nonnull %15, ptr noundef nonnull %3, ptr noundef null) #8
  call void @llvm.lifetime.end.p0(i64 32, ptr nonnull %3) #8
  br label %19

19:                                               ; preds = %lv_freetype_italic_transform.exit, %9
  %20 = load ptr, ptr %4, align 8, !tbaa !28
  %21 = getelementptr inbounds nuw i8, ptr %0, i64 24
  store ptr %20, ptr %21, align 8, !tbaa !34
  %22 = getelementptr inbounds nuw i8, ptr %0, i64 32
  %23 = call i32 @lv_mutex_init(ptr noundef nonnull %22) #8
  br label %24

24:                                               ; preds = %2, %19
  call void @llvm.lifetime.end.p0(i64 8, ptr nonnull %4) #8
  ret i1 %.not
}